target datalayout = "e-m:e-p270:32:32-p271:32:32-p272:64:64-i64:64-i128:128-f80:128-n8:16:32:64-S128"
target triple = "x86_64-pc-linux-gnu"

; Function Attrs: nounwind sspstrong uwtable
define hidden void @FLAC__fixed_compute_residual_wide_33bit(ptr noundef %0, i32 noundef %1, i32 noundef %2, ptr noundef %3) #0 {
  %5 = alloca ptr, align 8
  %6 = alloca i32, align 4
  %7 = alloca i32, align 4
  %8 = alloca ptr, align 8
  %9 = alloca i32, align 4
  %10 = alloca i32, align 4
  store ptr %0, ptr %5, align 8, !tbaa !20
  store i32 %1, ptr %6, align 4, !tbaa !8
  store i32 %2, ptr %7, align 4, !tbaa !8
  store ptr %3, ptr %8, align 8, !tbaa !3
  call void @llvm.lifetime.start.p0(i64 4, ptr %9) #5
  %11 = load i32, ptr %6, align 4, !tbaa !8
  store i32 %11, ptr %9, align 4, !tbaa !8
  call void @llvm.lifetime.start.p0(i64 4, ptr %10) #5
  %12 = load i32, ptr %7, align 4, !tbaa !8
  switch i32 %12, label %189 [
    i32 0, label %13
    i32 1, label %33
    i32 2, label %60
    i32 3, label %95
    i32 4, label %138
  ]

13:                                               ; preds = %4
  store i32 0, ptr %10, align 4, !tbaa !8
  br label %14

14:                                               ; preds = %29, %13
  %15 = load i32, ptr %10, align 4, !tbaa !8
  %16 = load i32, ptr %9, align 4, !tbaa !8
  %17 = icmp slt i32 %15, %16
  br i1 %17, label %18, label %32

18:                                               ; preds = %14
  %19 = load ptr, ptr %5, align 8, !tbaa !20
  %20 = load i32, ptr %10, align 4, !tbaa !8
  %21 = sext i32 %20 to i64
  %22 = getelementptr inbounds i64, ptr %19, i64 %21
  %23 = load i64, ptr %22, align 8, !tbaa !16
  %24 = trunc i64 %23 to i32
  %25 = load ptr, ptr %8, align 8, !tbaa !3
  %26 = load i32, ptr %10, align 4, !tbaa !8
  %27 = sext i32 %26 to i64
  %28 = getelementptr inbounds i32, ptr %25, i64 %27
  store i32 %24, ptr %28, align 4, !tbaa !8
  br label %29

29:                                               ; preds = %18
  %30 = load i32, ptr %10, align 4, !tbaa !8
  %31 = add nsw i32 %30, 1
  store i32 %31, ptr %10, align 4, !tbaa !8
  br label %14, !llvm.loop !32

32:                                               ; preds = %14
  br label %190

33:                                               ; preds = %4
  store i32 0, ptr %10, align 4, !tbaa !8
  br label %34

34:                                               ; preds = %56, %33
  %35 = load i32, ptr %10, align 4, !tbaa !8
  %36 = load i32, ptr %9, align 4, !tbaa !8
  %37 = icmp slt i32 %35, %36
  br i1 %37, label %38, label %59

38:                                               ; preds = %34
  %39 = load ptr, ptr %5, align 8, !tbaa !20
  %40 = load i32, ptr %10, align 4, !tbaa !8
  %41 = sext i32 %40 to i64
  %42 = getelementptr inbounds i64, ptr %39, i64 %41
  %43 = load i64, ptr %42, align 8, !tbaa !16
  %44 = load ptr, ptr %5, align 8, !tbaa !20
  %45 = load i32, ptr %10, align 4, !tbaa !8
  %46 = sub nsw i32 %45, 1
  %47 = sext i32 %46 to i64
  %48 = getelementptr inbounds i64, ptr %44, i64 %47
  %49 = load i64, ptr %48, align 8, !tbaa !16
  %50 = sub nsw i64 %43, %49
  %51 = trunc i64 %50 to i32
  %52 = load ptr, ptr %8, align 8, !tbaa !3
  %53 = load i32, ptr %10, align 4, !tbaa !8
  %54 = sext i32 %53 to i64
  %55 = getelementptr inbounds i32, ptr %52, i64 %54
  store i32 %51, ptr %55, align 4, !tbaa !8
  br label %56

56:                                               ; preds = %38
  %57 = load i32, ptr %10, align 4, !tbaa !8
  %58 = add nsw i32 %57, 1
  store i32 %58, ptr %10, align 4, !tbaa !8
  br label %34, !llvm.loop !33

59:                                               ; preds = %34
  br label %190

60:                                               ; preds = %4
  store i32 0, ptr %10, align 4, !tbaa !8
  br label %61

61:                                               ; preds = %91, %60
  %62 = load i32, ptr %10, align 4, !tbaa !8
  %63 = load i32, ptr %9, align 4, !tbaa !8
  %64 = icmp slt i32 %62, %63
  br i1 %64, label %65, label %94

65:                                               ; preds = %61
  %66 = load ptr, ptr %5, align 8, !tbaa !20
  %67 = load i32, ptr %10, align 4, !tbaa !8
  %68 = sext i32 %67 to i64
  %69 = getelementptr inbounds i64, ptr %66, i64 %68
  %70 = load i64, ptr %69, align 8, !tbaa !16
  %71 = load ptr, ptr %5, align 8, !tbaa !20
  %72 = load i32, ptr %10, align 4, !tbaa !8
  %73 = sub nsw i32 %72, 1
  %74 = sext i32 %73 to i64
  %75 = getelementptr inbounds i64, ptr %71, i64 %74
  %76 = load i64, ptr %75, align 8, !tbaa !16
  %77 = mul nsw i64 2, %76
  %78 = sub nsw i64 %70, %77
  %79 = load ptr, ptr %5, align 8, !tbaa !20
  %80 = load i32, ptr %10, align 4, !tbaa !8
  %81 = sub nsw i32 %80, 2
  %82 = sext i32 %81 to i64
  %83 = getelementptr inbounds i64, ptr %79, i64 %82
  %84 = load i64, ptr %83, align 8, !tbaa !16
  %85 = add nsw i64 %78, %84
  %86 = trunc i64 %85 to i32
  %87 = load ptr, ptr %8, align 8, !tbaa !3
  %88 = load i32, ptr %10, align 4, !tbaa !8
  %89 = sext i32 %88 to i64
  %90 = getelementptr inbounds i32, ptr %87, i64 %89
  store i32 %86, ptr %90, align 4, !tbaa !8
  br label %91

91:                                               ; preds = %65
  %92 = load i32, ptr %10, align 4, !tbaa !8
  %93 = add nsw i32 %92, 1
  store i32 %93, ptr %10, align 4, !tbaa !8
  br label %61, !llvm.loop !34

94:                                               ; preds = %61
  br label %190

95:                                               ; preds = %4
  store i32 0, ptr %10, align 4, !tbaa !8
  br label %96

96:                                               ; preds = %134, %95
  %97 = load i32, ptr %10, align 4, !tbaa !8
  %98 = load i32, ptr %9, align 4, !tbaa !8
  %99 = icmp slt i32 %97, %98
  br i1 %99, label %100, label %137

100:                                              ; preds = %96
  %101 = load ptr, ptr %5, align 8, !tbaa !20
  %102 = load i32, ptr %10, align 4, !tbaa !8
  %103 = sext i32 %102 to i64
  %104 = getelementptr inbounds i64, ptr %101, i64 %103
  %105 = load i64, ptr %104, align 8, !tbaa !16
  %106 = load ptr, ptr %5, align 8, !tbaa !20
  %107 = load i32, ptr %10, align 4, !tbaa !8
  %108 = sub nsw i32 %107, 1
  %109 = sext i32 %108 to i64
  %110 = getelementptr inbounds i64, ptr %106, i64 %109
  %111 = load i64, ptr %110, align 8, !tbaa !16
  %112 = mul nsw i64 3, %111
  %113 = sub nsw i64 %105, %112
  %114 = load ptr, ptr %5, align 8, !tbaa !20
  %115 = load i32, ptr %10, align 4, !tbaa !8
  %116 = sub nsw i32 %115, 2
  %117 = sext i32 %116 to i64
  %118 = getelementptr inbounds i64, ptr %114, i64 %117
  %119 = load i64, ptr %118, align 8, !tbaa !16
  %120 = mul nsw i64 3, %119
  %121 = add nsw i64 %113, %120
  %122 = load ptr, ptr %5, align 8, !tbaa !20
  %123 = load i32, ptr %10, align 4, !tbaa !8
  %124 = sub nsw i32 %123, 3
  %125 = sext i32 %124 to i64
  %126 = getelementptr inbounds i64, ptr %122, i64 %125
  %127 = load i64, ptr %126, align 8, !tbaa !16
  %128 = sub nsw i64 %121, %127
  %129 = trunc i64 %128 to i32
  %130 = load ptr, ptr %8, align 8, !tbaa !3
  %131 = load i32, ptr %10, align 4, !tbaa !8
  %132 = sext i32 %131 to i64
  %133 = getelementptr inbounds i32, ptr %130, i64 %132
  store i32 %129, ptr %133, align 4, !tbaa !8
  br label %134

134:                                              ; preds = %100
  %135 = load i32, ptr %10, align 4, !tbaa !8
  %136 = add nsw i32 %135, 1
  store i32 %136, ptr %10, align 4, !tbaa !8
  br label %96, !llvm.loop !35

137:                                              ; preds = %96
  br label %190

138:                                              ; preds = %4
  store i32 0, ptr %10, align 4, !tbaa !8
  br label %139

139:                                              ; preds = %185, %138
  %140 = load i32, ptr %10, align 4, !tbaa !8
  %141 = load i32, ptr %9, align 4, !tbaa !8
  %142 = icmp slt i32 %140, %141
  br i1 %142, label %143, label %188

143:                                              ; preds = %139
  %144 = load ptr, ptr %5, align 8, !tbaa !20
  %145 = load i32, ptr %10, align 4, !tbaa !8
  %146 = sext i32 %145 to i64
  %147 = getelementptr inbounds i64, ptr %144, i64 %146
  %148 = load i64, ptr %147, align 8, !tbaa !16
  %149 = load ptr, ptr %5, align 8, !tbaa !20
  %150 = load i32, ptr %10, align 4, !tbaa !8
  %151 = sub nsw i32 %150, 1
  %152 = sext i32 %151 to i64
  %153 = getelementptr inbounds i64, ptr %149, i64 %152
  %154 = load i64, ptr %153, align 8, !tbaa !16
  %155 = mul nsw i64 4, %154
  %156 = sub nsw i64 %148, %155
  %157 = load ptr, ptr %5, align 8, !tbaa !20
  %158 = load i32, ptr %10, align 4, !tbaa !8
  %159 = sub nsw i32 %158, 2
  %160 = sext i32 %159 to i64
  %161 = getelementptr inbounds i64, ptr %157, i64 %160
  %162 = load i64, ptr %161, align 8, !tbaa !16
  %163 = mul nsw i64 6, %162
  %164 = add nsw i64 %156, %163
  %165 = load ptr, ptr %5, align 8, !tbaa !20
  %166 = load i32, ptr %10, align 4, !tbaa !8
  %167 = sub nsw i32 %166, 3
  %168 = sext i32 %167 to i64
  %169 = getelementptr inbounds i64, ptr %165, i64 %168
  %170 = load i64, ptr %169, align 8, !tbaa !16
  %171 = mul nsw i64 4, %170
  %172 = sub nsw i64 %164, %171
  %173 = load ptr, ptr %5, align 8, !tbaa !20
  %174 = load i32, ptr %10, align 4, !tbaa !8
  %175 = sub nsw i32 %174, 4
  %176 = sext i32 %175 to i64
  %177 = getelementptr inbounds i64, ptr %173, i64 %176
  %178 = load i64, ptr %177, align 8, !tbaa !16
  %179 = add nsw i64 %172, %178
  %180 = trunc i64 %179 to i32
  %181 = load ptr, ptr %8, align 8, !tbaa !3
  %182 = load i32, ptr %10, align 4, !tbaa !8
  %183 = sext i32 %182 to i64
  %184 = getelementptr inbounds i32, ptr %181, i64 %183
  store i32 %180, ptr %184, align 4, !tbaa !8
  br label %185

185:                                              ; preds = %143
  %186 = load i32, ptr %10, align 4, !tbaa !8
  %187 = add nsw i32 %186, 1
  store i32 %187, ptr %10, align 4, !tbaa !8
  br label %139, !llvm.loop !36

188:                                              ; preds = %139
  br label %190

189:                                              ; preds = %4
  br label %190

190:                                              ; preds = %189, %188, %137, %94, %59, %32
  call void @llvm.lifetime.end.p0(i64 4, ptr %10) #5
  call void @llvm.lifetime.end.p0(i64 4, ptr %9) #5
  ret void
}