; Function Attrs: nofree norecurse nosync nounwind sspstrong memory(argmem: readwrite) uwtable
define hidden void @FLAC__fixed_compute_residual_wide_33bit(ptr noundef readonly captures(none) %0, i32 noundef %1, i32 noundef %2, ptr noundef writeonly captures(none) %3) local_unnamed_addr #3 {
  switch i32 %2, label %.loopexit [
    i32 0, label %.preheader
    i32 1, label %.preheader59
    i32 2, label %.preheader61
    i32 3, label %.preheader63
    i32 4, label %.preheader65
  ]

.preheader65:                                     ; preds = %4
  %5 = icmp sgt i32 %1, 0
  br i1 %5, label %.lr.ph.preheader, label %.loopexit

.lr.ph.preheader:                                 ; preds = %.preheader65
  %wide.trip.count = zext nneg i32 %1 to i64
  br label %.lr.ph

.preheader63:                                     ; preds = %4
  %6 = icmp sgt i32 %1, 0
  br i1 %6, label %.lr.ph69.preheader, label %.loopexit

.lr.ph69.preheader:                               ; preds = %.preheader63
  %wide.trip.count86 = zext nneg i32 %1 to i64
  br label %.lr.ph69

.preheader61:                                     ; preds = %4
  %7 = icmp sgt i32 %1, 0
  br i1 %7, label %.lr.ph71.preheader, label %.loopexit

.lr.ph71.preheader:                               ; preds = %.preheader61
  %wide.trip.count91 = zext nneg i32 %1 to i64
  br label %.lr.ph71

.preheader59:                                     ; preds = %4
  %8 = icmp sgt i32 %1, 0
  br i1 %8, label %.lr.ph73.preheader, label %.loopexit

.lr.ph73.preheader:                               ; preds = %.preheader59
  %wide.trip.count96 = zext nneg i32 %1 to i64
  br label %.lr.ph73

.preheader:                                       ; preds = %4
  %9 = icmp sgt i32 %1, 0
  br i1 %9, label %.lr.ph75.preheader, label %.loopexit

.lr.ph75.preheader:                               ; preds = %.preheader
  %wide.trip.count101 = zext nneg i32 %1 to i64
  br label %.lr.ph75

.lr.ph75:                                         ; preds = %.lr.ph75.preheader, %.lr.ph75
  %indvars.iv98 = phi i64 [ 0, %.lr.ph75.preheader ], [ %indvars.iv.next99, %.lr.ph75 ]
  %10 = getelementptr inbounds nuw i64, ptr %0, i64 %indvars.iv98
  %11 = load i64, ptr %10, align 8, !tbaa !13
  %12 = trunc i64 %11 to i32
  %13 = getelementptr inbounds nuw i32, ptr %3, i64 %indvars.iv98
  store i32 %12, ptr %13, align 4, !tbaa !3
  %indvars.iv.next99 = add nuw nsw i64 %indvars.iv98, 1
  %exitcond102.not = icmp eq i64 %indvars.iv.next99, %wide.trip.count101
  br i1 %exitcond102.not, label %.loopexit, label %.lr.ph75, !llvm.loop !24

.lr.ph73:                                         ; preds = %.lr.ph73.preheader, %.lr.ph73
  %indvars.iv93 = phi i64 [ 0, %.lr.ph73.preheader ], [ %indvars.iv.next94, %.lr.ph73 ]
  %14 = getelementptr inbounds nuw i64, ptr %0, i64 %indvars.iv93
  %15 = load i64, ptr %14, align 8, !tbaa !13
  %16 = getelementptr i8, ptr %14, i64 -8
  %17 = load i64, ptr %16, align 8, !tbaa !13
  %18 = sub nsw i64 %15, %17
  %19 = trunc i64 %18 to i32
  %20 = getelementptr inbounds nuw i32, ptr %3, i64 %indvars.iv93
  store i32 %19, ptr %20, align 4, !tbaa !3
  %indvars.iv.next94 = add nuw nsw i64 %indvars.iv93, 1
  %exitcond97.not = icmp eq i64 %indvars.iv.next94, %wide.trip.count96
  br i1 %exitcond97.not, label %.loopexit, label %.lr.ph73, !llvm.loop !25

.lr.ph71:                                         ; preds = %.lr.ph71.preheader, %.lr.ph71
  %indvars.iv88 = phi i64 [ 0, %.lr.ph71.preheader ], [ %indvars.iv.next89, %.lr.ph71 ]
  %21 = getelementptr inbounds nuw i64, ptr %0, i64 %indvars.iv88
  %22 = load i64, ptr %21, align 8, !tbaa !13
  %23 = getelementptr i8, ptr %21, i64 -8
  %24 = load i64, ptr %23, align 8, !tbaa !13
  %25 = shl i64 %24, 1
  %26 = sub i64 %22, %25
  %27 = getelementptr i8, ptr %21, i64 -16
  %28 = load i64, ptr %27, align 8, !tbaa !13
  %29 = add nsw i64 %26, %28
  %30 = trunc i64 %29 to i32
  %31 = getelementptr inbounds nuw i32, ptr %3, i64 %indvars.iv88
  store i32 %30, ptr %31, align 4, !tbaa !3
  %indvars.iv.next89 = add nuw nsw i64 %indvars.iv88, 1
  %exitcond92.not = icmp eq i64 %indvars.iv.next89, %wide.trip.count91
  br i1 %exitcond92.not, label %.loopexit, label %.lr.ph71, !llvm.loop !26

.lr.ph69:                                         ; preds = %.lr.ph69.preheader, %.lr.ph69
  %indvars.iv83 = phi i64 [ 0, %.lr.ph69.preheader ], [ %indvars.iv.next84, %.lr.ph69 ]
  %32 = getelementptr inbounds nuw i64, ptr %0, i64 %indvars.iv83
  %33 = load i64, ptr %32, align 8, !tbaa !13
  %34 = getelementptr i8, ptr %32, i64 -8
  %35 = load i64, ptr %34, align 8, !tbaa !13
  %.neg = mul i64 %35, 4294967293
  %36 = add i64 %.neg, %33
  %37 = getelementptr i8, ptr %32, i64 -16
  %38 = load i64, ptr %37, align 8, !tbaa !13
  %39 = mul nsw i64 %38, 3
  %40 = add i64 %36, %39
  %41 = getelementptr i8, ptr %32, i64 -24
  %42 = load i64, ptr %41, align 8, !tbaa !13
  %43 = sub i64 %40, %42
  %44 = trunc i64 %43 to i32
  %45 = getelementptr inbounds nuw i32, ptr %3, i64 %indvars.iv83
  store i32 %44, ptr %45, align 4, !tbaa !3
  %indvars.iv.next84 = add nuw nsw i64 %indvars.iv83, 1
  %exitcond87.not = icmp eq i64 %indvars.iv.next84, %wide.trip.count86
  br i1 %exitcond87.not, label %.loopexit, label %.lr.ph69, !llvm.loop !27

.lr.ph:                                           ; preds = %.lr.ph.preheader, %.lr.ph
  %indvars.iv = phi i64 [ 0, %.lr.ph.preheader ], [ %indvars.iv.next, %.lr.ph ]
  %46 = getelementptr inbounds nuw i64, ptr %0, i64 %indvars.iv
  %47 = load i64, ptr %46, align 8, !tbaa !13
  %48 = getelementptr i8, ptr %46, i64 -8
  %49 = load i64, ptr %48, align 8, !tbaa !13
  %50 = getelementptr i8, ptr %46, i64 -16
  %51 = load i64, ptr %50, align 8, !tbaa !13
  %52 = mul nsw i64 %51, 6
  %53 = getelementptr i8, ptr %46, i64 -24
  %54 = load i64, ptr %53, align 8, !tbaa !13
  %55 = add i64 %52, %47
  %56 = add i64 %54, %49
  %57 = getelementptr i8, ptr %46, i64 -32
  %58 = load i64, ptr %57, align 8, !tbaa !13
  %59 = add i64 %55, %58
  %60 = shl i64 %56, 2
  %61 = sub i64 %59, %60
  %62 = trunc i64 %61 to i32
  %63 = getelementptr inbounds nuw i32, ptr %3, i64 %indvars.iv
  store i32 %62, ptr %63, align 4, !tbaa !3
  %indvars.iv.next = add nuw nsw i64 %indvars.iv, 1
  %exitcond.not = icmp eq i64 %indvars.iv.next, %wide.trip.count
  br i1 %exitcond.not, label %.loopexit, label %.lr.ph, !llvm.loop !28

.loopexit:                                        ; preds = %.lr.ph, %.lr.ph69, %.lr.ph71, %.lr.ph73, %.lr.ph75, %.preheader65, %.preheader63, %.preheader61, %.preheader59, %.preheader, %4
  ret void
}